; ModuleID = '46/3669.c'
source_filename = "46/3669.c"
target datalayout = "e-m:e-p270:32:32-p271:32:32-p272:64:64-i64:64-f80:128-n8:16:32:64-S128"
target triple = "x86_64-pc-linux-gnu"

@.str = private unnamed_addr constant [5 x i8] c"%d%d\00", align 1
@.str.1 = private unnamed_addr constant [3 x i8] c"%d\00", align 1
@.str.2 = private unnamed_addr constant [4 x i8] c"%d\0A\00", align 1

; Function Attrs: noinline nounwind uwtable
define dso_local i32 @main() #0 {
  %1 = alloca i32, align 4
  %2 = alloca i32, align 4
  %3 = alloca i32, align 4
  %4 = alloca i32, align 4
  %5 = alloca i32, align 4
  %6 = alloca i32, align 4
  %7 = alloca i32, align 4
  %8 = alloca i32, align 4
  %9 = alloca i32, align 4
  %10 = alloca [200 x [200 x i32]], align 16
  store i32 0, i32* %1, align 4
  %11 = call i32 (i8*, ...) @__isoc99_scanf(i8* getelementptr inbounds ([5 x i8], [5 x i8]* @.str, i64 0, i64 0), i32* %5, i32* %4)
  %12 = load i32, i32* %4, align 4
  %13 = load i32, i32* %5, align 4
  %14 = mul nsw i32 %12, %13
  store i32 %14, i32* %7, align 4
  store i32 0, i32* %8, align 4
  store i32 0, i32* %2, align 4
  br label %15

15:                                               ; preds = %36, %0
  %16 = load i32, i32* %2, align 4
  %17 = load i32, i32* %5, align 4
  %18 = icmp slt i32 %16, %17
  br i1 %18, label %19, label %39

19:                                               ; preds = %15
  store i32 0, i32* %3, align 4
  br label %20

20:                                               ; preds = %32, %19
  %21 = load i32, i32* %3, align 4
  %22 = load i32, i32* %4, align 4
  %23 = icmp slt i32 %21, %22
  br i1 %23, label %24, label %35

24:                                               ; preds = %20
  %25 = load i32, i32* %2, align 4
  %26 = sext i32 %25 to i64
  %27 = getelementptr inbounds [200 x [200 x i32]], [200 x [200 x i32]]* %10, i64 0, i64 %26
  %28 = load i32, i32* %3, align 4
  %29 = sext i32 %28 to i64
  %30 = getelementptr inbounds [200 x i32], [200 x i32]* %27, i64 0, i64 %29
  %31 = call i32 (i8*, ...) @__isoc99_scanf(i8* getelementptr inbounds ([3 x i8], [3 x i8]* @.str.1, i64 0, i64 0), i32* %30)
  br label %32

32:                                               ; preds = %24
  %33 = load i32, i32* %3, align 4
  %34 = add nsw i32 %33, 1
  store i32 %34, i32* %3, align 4
  br label %20

35:                                               ; preds = %20
  br label %36

36:                                               ; preds = %35
  %37 = load i32, i32* %2, align 4
  %38 = add nsw i32 %37, 1
  store i32 %38, i32* %2, align 4
  br label %15

39:                                               ; preds = %15
  store i32 0, i32* %9, align 4
  br label %40

40:                                               ; preds = %162, %39
  %41 = load i32, i32* %9, align 4
  %42 = icmp slt i32 %41, 103
  br i1 %42, label %43, label %165

43:                                               ; preds = %40
  %44 = load i32, i32* %9, align 4
  store i32 %44, i32* %6, align 4
  br label %45

45:                                               ; preds = %62, %43
  %46 = load i32, i32* %6, align 4
  %47 = load i32, i32* %4, align 4
  %48 = load i32, i32* %9, align 4
  %49 = sub nsw i32 %47, %48
  %50 = icmp slt i32 %46, %49
  br i1 %50, label %51, label %65

51:                                               ; preds = %45
  %52 = load i32, i32* %9, align 4
  %53 = sext i32 %52 to i64
  %54 = getelementptr inbounds [200 x [200 x i32]], [200 x [200 x i32]]* %10, i64 0, i64 %53
  %55 = load i32, i32* %6, align 4
  %56 = sext i32 %55 to i64
  %57 = getelementptr inbounds [200 x i32], [200 x i32]* %54, i64 0, i64 %56
  %58 = load i32, i32* %57, align 4
  %59 = call i32 (i8*, ...) @printf(i8* getelementptr inbounds ([4 x i8], [4 x i8]* @.str.2, i64 0, i64 0), i32 %58)
  %60 = load i32, i32* %8, align 4
  %61 = add nsw i32 %60, 1
  store i32 %61, i32* %8, align 4
  br label %62

62:                                               ; preds = %51
  %63 = load i32, i32* %6, align 4
  %64 = add nsw i32 %63, 1
  store i32 %64, i32* %6, align 4
  br label %45

65:                                               ; preds = %45
  %66 = load i32, i32* %8, align 4
  %67 = load i32, i32* %7, align 4
  %68 = icmp eq i32 %66, %67
  br i1 %68, label %69, label %70

69:                                               ; preds = %65
  br label %165

70:                                               ; preds = %65
  %71 = load i32, i32* %9, align 4
  %72 = add nsw i32 %71, 1
  store i32 %72, i32* %6, align 4
  br label %73

73:                                               ; preds = %93, %70
  %74 = load i32, i32* %6, align 4
  %75 = load i32, i32* %5, align 4
  %76 = load i32, i32* %9, align 4
  %77 = sub nsw i32 %75, %76
  %78 = icmp slt i32 %74, %77
  br i1 %78, label %79, label %96

79:                                               ; preds = %73
  %80 = load i32, i32* %6, align 4
  %81 = sext i32 %80 to i64
  %82 = getelementptr inbounds [200 x [200 x i32]], [200 x [200 x i32]]* %10, i64 0, i64 %81
  %83 = load i32, i32* %4, align 4
  %84 = load i32, i32* %9, align 4
  %85 = sub nsw i32 %83, %84
  %86 = sub nsw i32 %85, 1
  %87 = sext i32 %86 to i64
  %88 = getelementptr inbounds [200 x i32], [200 x i32]* %82, i64 0, i64 %87
  %89 = load i32, i32* %88, align 4
  %90 = call i32 (i8*, ...) @printf(i8* getelementptr inbounds ([4 x i8], [4 x i8]* @.str.2, i64 0, i64 0), i32 %89)
  %91 = load i32, i32* %8, align 4
  %92 = add nsw i32 %91, 1
  store i32 %92, i32* %8, align 4
  br label %93

93:                                               ; preds = %79
  %94 = load i32, i32* %6, align 4
  %95 = add nsw i32 %94, 1
  store i32 %95, i32* %6, align 4
  br label %73

96:                                               ; preds = %73
  %97 = load i32, i32* %8, align 4
  %98 = load i32, i32* %7, align 4
  %99 = icmp eq i32 %97, %98
  br i1 %99, label %100, label %101

100:                                              ; preds = %96
  br label %165

101:                                              ; preds = %96
  %102 = load i32, i32* %4, align 4
  %103 = load i32, i32* %9, align 4
  %104 = sub nsw i32 %102, %103
  %105 = sub nsw i32 %104, 2
  store i32 %105, i32* %6, align 4
  br label %106

106:                                              ; preds = %125, %101
  %107 = load i32, i32* %6, align 4
  %108 = load i32, i32* %9, align 4
  %109 = sub nsw i32 %108, 1
  %110 = icmp sgt i32 %107, %109
  br i1 %110, label %111, label %128

111:                                              ; preds = %106
  %112 = load i32, i32* %5, align 4
  %113 = load i32, i32* %9, align 4
  %114 = sub nsw i32 %112, %113
  %115 = sub nsw i32 %114, 1
  %116 = sext i32 %115 to i64
  %117 = getelementptr inbounds [200 x [200 x i32]], [200 x [200 x i32]]* %10, i64 0, i64 %116
  %118 = load i32, i32* %6, align 4
  %119 = sext i32 %118 to i64
  %120 = getelementptr inbounds [200 x i32], [200 x i32]* %117, i64 0, i64 %119
  %121 = load i32, i32* %120, align 4
  %122 = call i32 (i8*, ...) @printf(i8* getelementptr inbounds ([4 x i8], [4 x i8]* @.str.2, i64 0, i64 0), i32 %121)
  %123 = load i32, i32* %8, align 4
  %124 = add nsw i32 %123, 1
  store i32 %124, i32* %8, align 4
  br label %125

125:                                              ; preds = %111
  %126 = load i32, i32* %6, align 4
  %127 = add nsw i32 %126, -1
  store i32 %127, i32* %6, align 4
  br label %106

128:                                              ; preds = %106
  %129 = load i32, i32* %8, align 4
  %130 = load i32, i32* %7, align 4
  %131 = icmp eq i32 %129, %130
  br i1 %131, label %132, label %133

132:                                              ; preds = %128
  br label %165

133:                                              ; preds = %128
  %134 = load i32, i32* %5, align 4
  %135 = load i32, i32* %9, align 4
  %136 = sub nsw i32 %134, %135
  %137 = sub nsw i32 %136, 2
  store i32 %137, i32* %6, align 4
  br label %138

138:                                              ; preds = %153, %133
  %139 = load i32, i32* %6, align 4
  %140 = load i32, i32* %9, align 4
  %141 = icmp sgt i32 %139, %140
  br i1 %141, label %142, label %156

142:                                              ; preds = %138
  %143 = load i32, i32* %6, align 4
  %144 = sext i32 %143 to i64
  %145 = getelementptr inbounds [200 x [200 x i32]], [200 x [200 x i32]]* %10, i64 0, i64 %144
  %146 = load i32, i32* %9, align 4
  %147 = sext i32 %146 to i64
  %148 = getelementptr inbounds [200 x i32], [200 x i32]* %145, i64 0, i64 %147
  %149 = load i32, i32* %148, align 4
  %150 = call i32 (i8*, ...) @printf(i8* getelementptr inbounds ([4 x i8], [4 x i8]* @.str.2, i64 0, i64 0), i32 %149)
  %151 = load i32, i32* %8, align 4
  %152 = add nsw i32 %151, 1
  store i32 %152, i32* %8, align 4
  br label %153

153:                                              ; preds = %142
  %154 = load i32, i32* %6, align 4
  %155 = add nsw i32 %154, -1
  store i32 %155, i32* %6, align 4
  br label %138

156:                                              ; preds = %138
  %157 = load i32, i32* %8, align 4
  %158 = load i32, i32* %7, align 4
  %159 = icmp eq i32 %157, %158
  br i1 %159, label %160, label %161

160:                                              ; preds = %156
  br label %165

161:                                              ; preds = %156
  br label %162

162:                                              ; preds = %161
  %163 = load i32, i32* %9, align 4
  %164 = add nsw i32 %163, 1
  store i32 %164, i32* %9, align 4
  br label %40

165:                                              ; preds = %160, %132, %100, %69, %40
  ret i32 0
}

declare dso_local i32 @__isoc99_scanf(i8*, ...) #1

declare dso_local i32 @printf(i8*, ...) #1


!llvm.module.flags = !{!0}
!llvm.ident = !{!1}

!0 = !{i32 1, !"wchar_size", i32 4}
!1 = !{!"clang version 10.0.0-4ubuntu1 "}
